Certificate:
    Data:
        Version: 3 (0x2)
        Serial Number: 20 (0x14)
        Signature Algorithm: md5WithRSAEncryption
        Issuer: C=US, ST=CA, L=SCA, O=Sun Microsystems, Inc., OU=Comms, CN=marceau.red.iplanet.com/emailAddress=admin@red.iplanet.com
        Validity
            Not Before: Sep 13 00:45:18 2008 GMT
            Not After : Sep 11 00:45:18 2018 GMT
        Subject: C=US, ST=CA, O=Sun Microsystems, Inc., OU=Comms, CN=ocsp@red.iplanet.com/emailAddress=ocsp@red.iplanet.com
        Subject Public Key Info:
            Public Key Algorithm: rsaEncryption
            RSA Public Key: (1024 bit)
                Modulus (1024 bit):
                    00:a5:e4:52:7c:ea:22:d2:c9:d1:a1:2a:5e:61:9c:
                    2c:d3:fd:67:c3:27:92:8e:77:c8:30:b6:f7:99:2e:
                    46:62:af:f9:9d:f0:a8:a7:5e:d5:5f:74:08:0f:b5:
                    fe:df:ef:eb:dd:03:b4:3b:7c:bf:eb:28:d7:40:65:
                    48:e7:57:5f:44:97:54:12:ee:c3:93:84:18:1b:fe:
                    07:59:e6:68:ec:0a:7c:07:8a:55:66:0b:c6:b8:0f:
                    d0:b7:f3:aa:24:84:61:93:4c:75:13:ea:21:6b:7f:
                    de:b4:4f:1d:9a:69:aa:66:ed:71:a5:8f:a3:17:54:
                    75:4e:53:a5:59:50:a2:77:49
                Exponent: 65537 (0x10001)
        X509v3 extensions:
            X509v3 Basic Constraints: 
                CA:FALSE
            Netscape Cert Type: 
                SSL Client, S/MIME, Object Signing
            X509v3 Key Usage: 
                Digital Signature, Non Repudiation, Key Encipherment
            Netscape Comment: 
                OpenSSL Generated Certificate
            X509v3 Subject Key Identifier: 
                5F:12:7B:08:FF:BB:D6:A3:5F:57:4B:D6:C8:A5:0E:99:14:E5:2F:0F
            X509v3 Authority Key Identifier: 
                keyid:64:DC:4B:09:D1:CF:45:4F:29:11:55:CA:FA:70:27:84:94:90:61:E8
                DirName:/C=US/ST=CA/L=SCA/O=Sun Microsystems, Inc./OU=Comms/CN=marceau.red.iplanet.com/emailAddress=admin@red.iplanet.com
                serial:DD:F3:E6:EB:C6:E5:B3:02

    Signature Algorithm: md5WithRSAEncryption
        1f:96:aa:d6:c7:a8:ab:21:21:46:b0:70:bb:65:e5:80:a3:30:
        94:7e:01:9a:7a:5a:ba:09:ec:64:04:46:f2:88:c3:e8:c5:b1:
        3d:d5:01:8b:5d:84:70:70:73:11:d4:8a:f5:de:1b:5c:e1:aa:
        4f:f8:18:04:d4:7d:19:7c:48:ab:41:5b:0a:22:b8:13:56:64:
        24:a2:ee:e6:e5:11:15:6a:d4:49:db:30:f4:5c:5e:e4:5e:07:
        01:4a:af:5f:b7:6a:04:d7:85:c0:ba:76:b4:c4:b3:19:07:a0:
        d0:15:7b:d7:eb:46:dc:16:a6:ad:c5:de:45:37:28:29:83:f2:
        7b:85:5b:04:b3:f1:2e:9c:23:d5:db:5a:36:fc:e9:df:18:74:
        b7:9f:4e:0b:e8:8b:7b:54:05:e9:37:08:22:e1:cd:7d:4e:f6:
        82:56:11:5a:26:23:34:38:ba:cf:4a:e5:8f:62:f9:a3:9a:1f:
        93:51:9d:73:78:21:d5:5e:f8:d8:36:4e:ad:ee:fa:1a:22:45:
        ce:0c:5f:46:6a:80:20:dd:8d:3d:30:bf:9f:2d:b8:4b:2f:e1:
        31:82:13:e7:28:32:29:e5:57:a9:93:03:8c:f6:94:9c:fe:8d:
        78:93:ce:3b:b2:5c:56:6d:9b:d8:79:c0:ac:27:78:f3:1c:d8:
        63:43:b8:79:9b:49:21:1a:52:fd:30:08:09:c8:2e:3a:11:f5:
        69:5e:9f:d9:0a:e0:6c:aa:b6:91:14:51:0d:08:b1:d5:72:1b:
        e6:76:ec:a4:80:60:a0:ae:3e:87:a0:65:2a:3c:67:29:de:aa:
        77:4a:28:b4:cd:ff:2f:fc:64:f7:b8:56:d2:85:c4:59:aa:8a:
        18:40:cd:88:a8:67:b3:2a:69:40:f8:9a:36:7e:23:54:8f:c8:
        63:dc:74:6a:5d:45:7c:4e:89:b4:8d:e7:ba:ea:1d:64:45:13:
        97:82:d9:05:c4:a5:ec:0f:f6:89:0d:96:6f:17:22:b5:f3:2f:
        61:95:31:f8:6b:e3:05:57:d1:25:7a:bd:b0:87:f6:21:da:97:
        ba:87:35:58:48:c4:35:35:5c:fd:53:0a:4d:c8:6e:aa:f2:fd:
        b8:b2:dc:92:01:58:ad:d6:4c:46:80:ef:c0:27:a8:87:cd:35:
        92:f3:db:59:60:6a:d3:43:31:a6:40:23:cc:c5:44:cd:72:df:
        35:d1:33:25:bd:93:2c:de:fd:5d:fd:e5:d3:36:cc:1c:46:ec:
        e4:37:a8:6a:b4:6b:29:66:0a:c5:ce:94:e6:96:9c:10:c9:86:
        94:1f:ac:b8:ba:f9:14:d8:00:07:51:dc:64:ee:0a:e8:93:09:
        37:31:f2:8b:ef:2e:6a:89
-----BEGIN CERTIFICATE-----
MIIFgDCCA2igAwIBAgIBFDANBgkqhkiG9w0BAQQFADCBoTELMAkGA1UEBhMCVVMx
CzAJBgNVBAgTAkNBMQwwCgYDVQQHEwNTQ0ExHzAdBgNVBAoTFlN1biBNaWNyb3N5
c3RlbXMsIEluYy4xDjAMBgNVBAsTBUNvbW1zMSAwHgYDVQQDExdtYXJjZWF1LnJl
ZC5pcGxhbmV0LmNvbTEkMCIGCSqGSIb3DQEJARYVYWRtaW5AcmVkLmlwbGFuZXQu
Y29tMB4XDTA4MDkxMzAwNDUxOFoXDTE4MDkxMTAwNDUxOFowgY8xCzAJBgNVBAYT
AlVTMQswCQYDVQQIEwJDQTEfMB0GA1UEChMWU3VuIE1pY3Jvc3lzdGVtcywgSW5j
LjEOMAwGA1UECxMFQ29tbXMxHTAbBgNVBAMUFG9jc3BAcmVkLmlwbGFuZXQuY29t
MSMwIQYJKoZIhvcNAQkBFhRvY3NwQHJlZC5pcGxhbmV0LmNvbTCBnzANBgkqhkiG
9w0BAQEFAAOBjQAwgYkCgYEApeRSfOoi0snRoSpeYZws0/1nwyeSjnfIMLb3mS5G
Yq/5nfCop17VX3QID7X+3+/r3QO0O3y/6yjXQGVI51dfRJdUEu7Dk4QYG/4HWeZo
7Ap8B4pVZgvGuA/Qt/OqJIRhk0x1E+oha3/etE8dmmmqZu1xpY+jF1R1TlOlWVCi
d0kCAwEAAaOCAVUwggFRMAkGA1UdEwQCMAAwEQYJYIZIAYb4QgEBBAQDAgSwMAsG
A1UdDwQEAwIF4DAsBglghkgBhvhCAQ0EHxYdT3BlblNTTCBHZW5lcmF0ZWQgQ2Vy
dGlmaWNhdGUwHQYDVR0OBBYEFF8Sewj/u9ajX1dL1silDpkU5S8PMIHWBgNVHSME
gc4wgcuAFGTcSwnRz0VPKRFVyvpwJ4SUkGHooYGnpIGkMIGhMQswCQYDVQQGEwJV
UzELMAkGA1UECBMCQ0ExDDAKBgNVBAcTA1NDQTEfMB0GA1UEChMWU3VuIE1pY3Jv
c3lzdGVtcywgSW5jLjEOMAwGA1UECxMFQ29tbXMxIDAeBgNVBAMTF21hcmNlYXUu
cmVkLmlwbGFuZXQuY29tMSQwIgYJKoZIhvcNAQkBFhVhZG1pbkByZWQuaXBsYW5l
dC5jb22CCQDd8+brxuWzAjANBgkqhkiG9w0BAQQFAAOCAgEAH5aq1seoqyEhRrBw
u2XlgKMwlH4BmnpaugnsZARG8ojD6MWxPdUBi12EcHBzEdSK9d4bXOGqT/gYBNR9
GXxIq0FbCiK4E1ZkJKLu5uURFWrUSdsw9Fxe5F4HAUqvX7dqBNeFwLp2tMSzGQeg
0BV71+tG3BamrcXeRTcoKYPye4VbBLPxLpwj1dtaNvzp3xh0t59OC+iLe1QF6TcI
IuHNfU72glYRWiYjNDi6z0rlj2L5o5ofk1Gdc3gh1V742DZOre76GiJFzgxfRmqA
IN2NPTC/ny24Sy/hMYIT5ygyKeVXqZMDjPaUnP6NeJPOO7JcVm2b2HnArCd48xzY
Y0O4eZtJIRpS/TAICcguOhH1aV6f2QrgbKq2kRRRDQix1XIb5nbspIBgoK4+h6Bl
KjxnKd6qd0ootM3/L/xk97hW0oXEWaqKGEDNiKhnsyppQPiaNn4jVI/IY9x0al1F
fE6JtI3nuuodZEUTl4LZBcSl7A/2iQ2WbxcitfMvYZUx+GvjBVfRJXq9sIf2IdqX
uoc1WEjENTVc/VMKTchuqvL9uLLckgFYrdZMRoDvwCeoh801kvPbWWBq00MxpkAj
zMVEzXLfNdEzJb2TLN79Xf3l0zbMHEbs5DeoarRrKWYKxc6U5pacEMmGlB+suLr5
FNgAB1HcZO4K6JMJNzHyi+8uaok=
-----END CERTIFICATE-----
